target datalayout = "e-m:e-p270:32:32-p271:32:32-p272:64:64-i64:64-i128:128-f80:128-n8:16:32:64-S128"
target triple = "x86_64-pc-linux-gnu"

%struct.H5VL_loc_params_t = type { i32, i32, %union.anon }
%union.anon = type { %struct.H5VL_loc_by_idx }
%struct.H5VL_loc_by_idx = type { ptr, i32, i32, i64, i64 }
%struct.H5VL_group_get_args_t = type { i32, %union.anon.0 }
%union.anon.0 = type { %struct.H5VL_group_get_info_args_t }
%struct.H5VL_group_get_info_args_t = type { %struct.H5VL_loc_params_t, ptr }

@H5_libterm_g = external global i8, align 1
@.str = private unnamed_addr constant [97 x i8] c"generated/home/dtcxzyw/WorkSpace/Projects/compilers/llvm-opt-benchmark/bench/hdf5/hdf5/src/H5G.c\00", align 1
@H5G_init_g = external global i8, align 1
@H5E_CANTSET_g = external global i64, align 8
@H5E_SYM_g = external global i64, align 8
@H5E_ARGS_g = external global i64, align 8
@H5P_LST_DATASET_XFER_ID_g = external global i64, align 8
@H5E_CANTGET_g = external global i64, align 8
@H5E_BADVALUE_g = external global i64, align 8
@.str.53 = private unnamed_addr constant [34 x i8] c"can't set object access arguments\00", align 1
@.str.59 = private unnamed_addr constant [36 x i8] c"group_info parameter cannot be NULL\00", align 1
@.str.60 = private unnamed_addr constant [25 x i8] c"unable to get group info\00", align 1
@__func__.H5G__get_info_by_idx_api_common = private unnamed_addr constant [32 x i8] c"H5G__get_info_by_idx_api_common\00", align 1

; Function Attrs: nounwind uwtable
define internal i32 @H5G__get_info_by_idx_api_common(i64 noundef %0, ptr noundef %1, i32 noundef %2, i32 noundef %3, i64 noundef %4, ptr noundef %5, i64 noundef %6, ptr noundef %7, ptr noundef %8) #0 {
  %10 = alloca i64, align 8
  %11 = alloca ptr, align 8
  %12 = alloca i32, align 4
  %13 = alloca i32, align 4
  %14 = alloca i64, align 8
  %15 = alloca ptr, align 8
  %16 = alloca i64, align 8
  %17 = alloca ptr, align 8
  %18 = alloca ptr, align 8
  %19 = alloca ptr, align 8
  %20 = alloca ptr, align 8
  %21 = alloca %struct.H5VL_group_get_args_t, align 8
  %22 = alloca i32, align 4
  %23 = alloca i8, align 1
  store i64 %0, ptr %10, align 8, !tbaa !3
  store ptr %1, ptr %11, align 8, !tbaa !7
  store i32 %2, ptr %12, align 4, !tbaa !20
  store i32 %3, ptr %13, align 4, !tbaa !20
  store i64 %4, ptr %14, align 8, !tbaa !3
  store ptr %5, ptr %15, align 8, !tbaa !27
  store i64 %6, ptr %16, align 8, !tbaa !3
  store ptr %7, ptr %17, align 8, !tbaa !14
  store ptr %8, ptr %18, align 8, !tbaa !15
  call void @llvm.lifetime.start.p0(i64 8, ptr %19) #5
  store ptr null, ptr %19, align 8, !tbaa !17
  call void @llvm.lifetime.start.p0(i64 8, ptr %20) #5
  %24 = load ptr, ptr %18, align 8, !tbaa !15
  %25 = icmp ne ptr %24, null
  br i1 %25, label %26, label %28

26:                                               ; preds = %9
  %27 = load ptr, ptr %18, align 8, !tbaa !15
  br label %29

28:                                               ; preds = %9
  br label %29

29:                                               ; preds = %28, %26
  %30 = phi ptr [ %27, %26 ], [ %19, %28 ]
  store ptr %30, ptr %20, align 8, !tbaa !15
  call void @llvm.lifetime.start.p0(i64 56, ptr %21) #5
  call void @llvm.lifetime.start.p0(i64 4, ptr %22) #5
  store i32 0, ptr %22, align 4, !tbaa !20
  call void @llvm.lifetime.start.p0(i64 1, ptr %23) #5
  store i8 0, ptr %23, align 1, !tbaa !10
  %31 = load i8, ptr @H5G_init_g, align 1, !tbaa !10, !range !12, !noundef !13
  %32 = trunc i8 %31 to i1
  br i1 %32, label %37, label %33

33:                                               ; preds = %29
  %34 = load i8, ptr @H5_libterm_g, align 1, !tbaa !10, !range !12, !noundef !13
  %35 = trunc i8 %34 to i1
  %36 = xor i1 %35, true
  br label %37

37:                                               ; preds = %33, %29
  %38 = phi i1 [ true, %29 ], [ %36, %33 ]
  %39 = xor i1 %38, true
  %40 = xor i1 %39, true
  %41 = zext i1 %40 to i32
  %42 = sext i32 %41 to i64
  %43 = call i64 @llvm.expect.i64(i64 %42, i64 1)
  %44 = icmp ne i64 %43, 0
  br i1 %44, label %45, label %130

45:                                               ; preds = %37
  %46 = load ptr, ptr %15, align 8, !tbaa !27
  %47 = icmp ne ptr %46, null
  br i1 %47, label %67, label %48

48:                                               ; preds = %45
  br label %49

49:                                               ; preds = %48
  br label %50

50:                                               ; preds = %49
  br label %51

51:                                               ; preds = %50
  %52 = load i64, ptr @H5E_ARGS_g, align 8, !tbaa !3
  %53 = load i64, ptr @H5E_BADVALUE_g, align 8, !tbaa !3
  %54 = call i32 (ptr, ptr, i32, i64, i64, ptr, ...) @H5E_printf_stack(ptr noundef @.str, ptr noundef @__func__.H5G__get_info_by_idx_api_common, i32 noundef 767, i64 noundef %52, i64 noundef %53, ptr noundef @.str.59)
  br label %55

55:                                               ; preds = %51
  br label %56

56:                                               ; preds = %55
  store i8 1, ptr %23, align 1, !tbaa !10
  %57 = load i8, ptr %23, align 1, !tbaa !10, !range !12, !noundef !13
  %58 = trunc i8 %57 to i1
  %59 = zext i1 %58 to i8
  store i8 %59, ptr %23, align 1, !tbaa !10
  br label %60

60:                                               ; preds = %56
  br label %61

61:                                               ; preds = %60
  br label %62

62:                                               ; preds = %61
  store i32 -1, ptr %22, align 4, !tbaa !20
  br label %129

63:                                               ; No predecessors!
  br label %64

64:                                               ; preds = %63
  br label %65

65:                                               ; preds = %64
  br label %66

66:                                               ; preds = %65
  br label %67

67:                                               ; preds = %66, %45
  %68 = getelementptr inbounds nuw %struct.H5VL_group_get_args_t, ptr %21, i32 0, i32 0
  store i32 1, ptr %68, align 8, !tbaa !25
  %69 = load i64, ptr %10, align 8, !tbaa !3
  %70 = load ptr, ptr %11, align 8, !tbaa !7
  %71 = load i32, ptr %12, align 4, !tbaa !20
  %72 = load i32, ptr %13, align 4, !tbaa !20
  %73 = load i64, ptr %14, align 8, !tbaa !3
  %74 = load i64, ptr %16, align 8, !tbaa !3
  %75 = load ptr, ptr %20, align 8, !tbaa !15
  %76 = getelementptr inbounds nuw %struct.H5VL_group_get_args_t, ptr %21, i32 0, i32 1
  %77 = getelementptr inbounds nuw %struct.H5VL_group_get_info_args_t, ptr %76, i32 0, i32 0
  %78 = call i32 @H5VL_setup_idx_args(i64 noundef %69, ptr noundef %70, i32 noundef %71, i32 noundef %72, i64 noundef %73, i1 noundef zeroext false, i64 noundef %74, ptr noundef %75, ptr noundef %77)
  %79 = icmp slt i32 %78, 0
  br i1 %79, label %80, label %99

80:                                               ; preds = %67
  br label %81

81:                                               ; preds = %80
  br label %82

82:                                               ; preds = %81
  br label %83

83:                                               ; preds = %82
  %84 = load i64, ptr @H5E_SYM_g, align 8, !tbaa !3
  %85 = load i64, ptr @H5E_CANTSET_g, align 8, !tbaa !3
  %86 = call i32 (ptr, ptr, i32, i64, i64, ptr, ...) @H5E_printf_stack(ptr noundef @.str, ptr noundef @__func__.H5G__get_info_by_idx_api_common, i32 noundef 773, i64 noundef %84, i64 noundef %85, ptr noundef @.str.53)
  br label %87

87:                                               ; preds = %83
  br label %88

88:                                               ; preds = %87
  store i8 1, ptr %23, align 1, !tbaa !10
  %89 = load i8, ptr %23, align 1, !tbaa !10, !range !12, !noundef !13
  %90 = trunc i8 %89 to i1
  %91 = zext i1 %90 to i8
  store i8 %91, ptr %23, align 1, !tbaa !10
  br label %92

92:                                               ; preds = %88
  br label %93

93:                                               ; preds = %92
  br label %94

94:                                               ; preds = %93
  store i32 -1, ptr %22, align 4, !tbaa !20
  br label %129

95:                                               ; No predecessors!
  br label %96

96:                                               ; preds = %95
  br label %97

97:                                               ; preds = %96
  br label %98

98:                                               ; preds = %97
  br label %99

99:                                               ; preds = %98, %67
  %100 = load ptr, ptr %15, align 8, !tbaa !27
  %101 = getelementptr inbounds nuw %struct.H5VL_group_get_args_t, ptr %21, i32 0, i32 1
  %102 = getelementptr inbounds nuw %struct.H5VL_group_get_info_args_t, ptr %101, i32 0, i32 1
  store ptr %100, ptr %102, align 8, !tbaa !19
  %103 = load ptr, ptr %20, align 8, !tbaa !15
  %104 = load ptr, ptr %103, align 8, !tbaa !17
  %105 = load i64, ptr @H5P_LST_DATASET_XFER_ID_g, align 8, !tbaa !3
  %106 = load ptr, ptr %17, align 8, !tbaa !14
  %107 = call i32 @H5VL_group_get(ptr noundef %104, ptr noundef %21, i64 noundef %105, ptr noundef %106)
  %108 = icmp slt i32 %107, 0
  br i1 %108, label %109, label %128

109:                                              ; preds = %99
  br label %110

110:                                              ; preds = %109
  br label %111

111:                                              ; preds = %110
  br label %112

112:                                              ; preds = %111
  %113 = load i64, ptr @H5E_SYM_g, align 8, !tbaa !3
  %114 = load i64, ptr @H5E_CANTGET_g, align 8, !tbaa !3
  %115 = call i32 (ptr, ptr, i32, i64, i64, ptr, ...) @H5E_printf_stack(ptr noundef @.str, ptr noundef @__func__.H5G__get_info_by_idx_api_common, i32 noundef 778, i64 noundef %113, i64 noundef %114, ptr noundef @.str.60)
  br label %116

116:                                              ; preds = %112
  br label %117

117:                                              ; preds = %116
  store i8 1, ptr %23, align 1, !tbaa !10
  %118 = load i8, ptr %23, align 1, !tbaa !10, !range !12, !noundef !13
  %119 = trunc i8 %118 to i1
  %120 = zext i1 %119 to i8
  store i8 %120, ptr %23, align 1, !tbaa !10
  br label %121

121:                                              ; preds = %117
  br label %122

122:                                              ; preds = %121
  br label %123

123:                                              ; preds = %122
  store i32 -1, ptr %22, align 4, !tbaa !20
  br label %129

124:                                              ; No predecessors!
  br label %125

125:                                              ; preds = %124
  br label %126

126:                                              ; preds = %125
  br label %127

127:                                              ; preds = %126
  br label %128

128:                                              ; preds = %127, %99
  br label %129

129:                                              ; preds = %128, %123, %94, %62
  br label %130

130:                                              ; preds = %129, %37
  %131 = load i32, ptr %22, align 4, !tbaa !20
  call void @llvm.lifetime.end.p0(i64 1, ptr %23) #5
  call void @llvm.lifetime.end.p0(i64 4, ptr %22) #5
  call void @llvm.lifetime.end.p0(i64 56, ptr %21) #5
  call void @llvm.lifetime.end.p0(i64 8, ptr %20) #5
  call void @llvm.lifetime.end.p0(i64 8, ptr %19) #5
  ret i32 %131
}