; Function Attrs: nounwind uwtable
define internal fastcc range(i32 -1, 1) i32 @H5G__get_info_by_idx_api_common(i64 noundef %0, ptr noundef %1, i32 noundef %2, i32 noundef %3, i64 noundef %4, ptr noundef %5, i64 noundef %6, ptr noundef %7, ptr noundef %8) unnamed_addr #0 {
  %10 = alloca ptr, align 8
  %11 = alloca %struct.H5VL_group_get_args_t, align 8
  call void @llvm.lifetime.start.p0(i64 8, ptr nonnull %10) #4
  store ptr null, ptr %10, align 8, !tbaa !15
  %.not = icmp eq ptr %8, null
  %12 = select i1 %.not, ptr %10, ptr %8
  call void @llvm.lifetime.start.p0(i64 56, ptr nonnull %11) #4
  %13 = load i8, ptr @H5G_init_g, align 1, !tbaa !3, !range !7, !noundef !8
  %14 = trunc nuw i8 %13 to i1
  %15 = load i8, ptr @H5_libterm_g, align 1, !range !7
  %16 = trunc nuw i8 %15 to i1
  %17 = xor i1 %16, true
  %18 = select i1 %14, i1 true, i1 %17
  br i1 %18, label %19, label %42, !prof !9

19:                                               ; preds = %9
  %.not17 = icmp eq ptr %5, null
  br i1 %.not17, label %20, label %24

20:                                               ; preds = %19
  %21 = load i64, ptr @H5E_ARGS_g, align 8, !tbaa !11
  %22 = load i64, ptr @H5E_BADVALUE_g, align 8, !tbaa !11
  %23 = tail call i32 (ptr, ptr, i32, i64, i64, ptr, ...) @H5E_printf_stack(ptr noundef nonnull @.str, ptr noundef nonnull @__func__.H5G__get_info_by_idx_api_common, i32 noundef 767, i64 noundef %21, i64 noundef %22, ptr noundef nonnull @.str.59) #4
  br label %42

24:                                               ; preds = %19
  store i32 1, ptr %11, align 8, !tbaa !25
  %25 = getelementptr inbounds nuw i8, ptr %11, i64 8
  %26 = call i32 @H5VL_setup_idx_args(i64 noundef %0, ptr noundef %1, i32 noundef %2, i32 noundef %3, i64 noundef %4, i1 noundef zeroext false, i64 noundef %6, ptr noundef nonnull %12, ptr noundef nonnull %25) #4
  %27 = icmp slt i32 %26, 0
  br i1 %27, label %28, label %32

28:                                               ; preds = %24
  %29 = load i64, ptr @H5E_SYM_g, align 8, !tbaa !11
  %30 = load i64, ptr @H5E_CANTSET_g, align 8, !tbaa !11
  %31 = call i32 (ptr, ptr, i32, i64, i64, ptr, ...) @H5E_printf_stack(ptr noundef nonnull @.str, ptr noundef nonnull @__func__.H5G__get_info_by_idx_api_common, i32 noundef 773, i64 noundef %29, i64 noundef %30, ptr noundef nonnull @.str.53) #4
  br label %42

32:                                               ; preds = %24
  %33 = getelementptr inbounds nuw i8, ptr %11, i64 48
  store ptr %5, ptr %33, align 8, !tbaa !18
  %34 = load ptr, ptr %12, align 8, !tbaa !15
  %35 = load i64, ptr @H5P_LST_DATASET_XFER_ID_g, align 8, !tbaa !11
  %36 = call i32 @H5VL_group_get(ptr noundef %34, ptr noundef nonnull %11, i64 noundef %35, ptr noundef %7) #4
  %37 = icmp slt i32 %36, 0
  br i1 %37, label %38, label %42

38:                                               ; preds = %32
  %39 = load i64, ptr @H5E_SYM_g, align 8, !tbaa !11
  %40 = load i64, ptr @H5E_CANTGET_g, align 8, !tbaa !11
  %41 = call i32 (ptr, ptr, i32, i64, i64, ptr, ...) @H5E_printf_stack(ptr noundef nonnull @.str, ptr noundef nonnull @__func__.H5G__get_info_by_idx_api_common, i32 noundef 778, i64 noundef %39, i64 noundef %40, ptr noundef nonnull @.str.60) #4
  br label %42

42:                                               ; preds = %20, %28, %38, %32, %9
  %.0 = phi i32 [ -1, %28 ], [ -1, %38 ], [ 0, %32 ], [ -1, %20 ], [ 0, %9 ]
  call void @llvm.lifetime.end.p0(i64 56, ptr nonnull %11) #4
  call void @llvm.lifetime.end.p0(i64 8, ptr nonnull %10) #4
  ret i32 %.0
}